target datalayout = "e-m:e-p270:32:32-p271:32:32-p272:64:64-i64:64-i128:128-f80:128-n8:16:32:64-S128"
target triple = "x86_64-pc-linux-gnu"

@.str.26 = private unnamed_addr constant [6 x i8] c"%s.%s\00", align 1

; Function Attrs: nounwind uwtable
define internal i32 @file_exists(ptr noundef %0, ptr noundef %1) #0 {
  %3 = alloca i32, align 4
  %4 = alloca ptr, align 8
  %5 = alloca ptr, align 8
  %6 = alloca ptr, align 8
  %7 = alloca i32, align 4
  %8 = alloca i32, align 4
  store ptr %0, ptr %4, align 8, !tbaa !30
  store ptr %1, ptr %5, align 8, !tbaa !30
  call void @llvm.lifetime.start.p0(i64 8, ptr %6) #12
  call void @llvm.lifetime.start.p0(i64 4, ptr %7) #12
  %9 = load ptr, ptr %5, align 8, !tbaa !30
  %10 = icmp eq ptr null, %9
  br i1 %10, label %11, label %16

11:                                               ; preds = %2
  %12 = load ptr, ptr %4, align 8, !tbaa !30
  %13 = call i32 @access(ptr noundef %12, i32 noundef 0) #12
  %14 = icmp eq i32 %13, 0
  %15 = zext i1 %14 to i32
  store i32 %15, ptr %3, align 4
  store i32 1, ptr %8, align 4
  br label %33

16:                                               ; preds = %2
  %17 = load ptr, ptr %4, align 8, !tbaa !30
  %18 = load ptr, ptr %5, align 8, !tbaa !30
  %19 = call i32 (ptr, ptr, ...) @asprintf(ptr noundef %6, ptr noundef @.str.26, ptr noundef %17, ptr noundef %18) #12
  store i32 %19, ptr %7, align 4, !tbaa !37
  %20 = load i32, ptr %7, align 4, !tbaa !37
  %21 = icmp sgt i32 0, %20
  br i1 %21, label %25, label %22

22:                                               ; preds = %16
  %23 = load ptr, ptr %6, align 8, !tbaa !30
  %24 = icmp eq ptr null, %23
  br i1 %24, label %25, label %26

25:                                               ; preds = %22, %16
  store i32 0, ptr %3, align 4
  store i32 1, ptr %8, align 4
  br label %33

26:                                               ; preds = %22
  %27 = load ptr, ptr %6, align 8, !tbaa !30
  %28 = call i32 @access(ptr noundef %27, i32 noundef 0) #12
  store i32 %28, ptr %7, align 4, !tbaa !37
  %29 = load ptr, ptr %6, align 8, !tbaa !30
  call void @free(ptr noundef %29) #12
  %30 = load i32, ptr %7, align 4, !tbaa !37
  %31 = icmp eq i32 0, %30
  %32 = zext i1 %31 to i32
  store i32 %32, ptr %3, align 4
  store i32 1, ptr %8, align 4
  br label %33

33:                                               ; preds = %26, %25, %11
  call void @llvm.lifetime.end.p0(i64 4, ptr %7) #12
  call void @llvm.lifetime.end.p0(i64 8, ptr %6) #12
  %34 = load i32, ptr %3, align 4
  ret i32 %34
}