; Function Attrs: nounwind uwtable
define internal fastcc range(i32 0, 2) i32 @file_exists(ptr noundef %0, ptr noundef %1) unnamed_addr #1 {
  %3 = alloca ptr, align 8
  call void @llvm.lifetime.start.p0(i64 8, ptr nonnull %3) #15
  %4 = icmp eq ptr %1, null
  br i1 %4, label %5, label %8

5:                                                ; preds = %2
  %6 = tail call i32 @access(ptr noundef %0, i32 noundef 0) #15
  %7 = icmp eq i32 %6, 0
  br label %17

8:                                                ; preds = %2
  %9 = call i32 (ptr, ptr, ...) @asprintf(ptr noundef nonnull %3, ptr noundef nonnull @.str.26, ptr noundef %0, ptr noundef nonnull %1) #15
  %10 = icmp slt i32 %9, 0
  %11 = load ptr, ptr %3, align 8
  %12 = icmp eq ptr %11, null
  %or.cond = select i1 %10, i1 true, i1 %12
  br i1 %or.cond, label %17, label %13

13:                                               ; preds = %8
  %14 = call i32 @access(ptr noundef nonnull %11, i32 noundef 0) #15
  %15 = load ptr, ptr %3, align 8, !tbaa !24
  call void @free(ptr noundef %15) #15
  %16 = icmp eq i32 %14, 0
  br label %17

17:                                               ; preds = %8, %13, %5
  %.0.shrunk = phi i1 [ %7, %5 ], [ %16, %13 ], [ false, %8 ]
  %.0 = zext i1 %.0.shrunk to i32
  call void @llvm.lifetime.end.p0(i64 8, ptr nonnull %3) #15
  ret i32 %.0
}